; Function Attrs: mustprogress nounwind uwtable
define hidden noundef i64 @_ZNK5XHeap21unsafe_max_tlab_allocEv(ptr noundef nonnull align 64 dereferenceable(4088) %0) local_unnamed_addr #1 align 2 {
  %2 = getelementptr inbounds i8, ptr %0, i64 120
  %3 = tail call noundef i64 @_ZNK16XObjectAllocator9remainingEv(ptr noundef nonnull align 8 dereferenceable(56) %2) #12
  %4 = load i64, ptr @MinTLABSize, align 8
  %5 = icmp ult i64 %3, %4
  %6 = tail call i64 @llvm.umin.i64(i64 %3, i64 262144)
  %7 = select i1 %5, i64 262144, i64 %6
  ret i64 %7
}